; Function Attrs: mustprogress uwtable
define noundef nonnull align 8 dereferenceable(64) ptr @_ZNK6icu_7512ChoiceFormat6formatEPKNS_11FormattableEiRNS_13UnicodeStringERNS_13FieldPositionER10UErrorCode(ptr noundef nonnull align 8 dereferenceable(488) %this, ptr noundef %objs, i32 noundef %cnt, ptr noundef nonnull returned align 8 dereferenceable(64) %appendTo, ptr noundef nonnull align 8 dereferenceable(20) %pos, ptr noundef nonnull align 4 dereferenceable(4) %status) unnamed_addr #1 align 2 {
entry:
  %cmp = icmp slt i32 %cnt, 0
  br i1 %cmp, label %return.sink.split, label %if.end

if.end:                                           ; preds = %entry
  %partsLength.i = getelementptr inbounds i8, ptr %this, i64 456
  %0 = load i32, ptr %partsLength.i, align 8
  %cmp2 = icmp eq i32 %0, 0
  br i1 %cmp2, label %return.sink.split, label %for.cond.preheader

for.cond.preheader:                               ; preds = %if.end
  %cmp510.not = icmp eq i32 %cnt, 0
  br i1 %cmp510.not, label %return, label %for.body.preheader

for.body.preheader:                               ; preds = %for.cond.preheader
  %wide.trip.count = zext nneg i32 %cnt to i64
  br label %for.body

for.body:                                         ; preds = %for.body.preheader, %for.inc
  %indvars.iv = phi i64 [ 0, %for.body.preheader ], [ %indvars.iv.next, %for.inc ]
  %arrayidx = getelementptr inbounds %"class.icu_75::Formattable", ptr %objs, i64 %indvars.iv
  %call6 = tail call noundef double @_ZNK6icu_7511Formattable9getDoubleER10UErrorCode(ptr noundef nonnull align 8 dereferenceable(112) %arrayidx, ptr noundef nonnull align 4 dereferenceable(4) %status)
  %1 = load i32, ptr %status, align 4
  %cmp.i = icmp sgt i32 %1, 0
  br i1 %cmp.i, label %for.inc, label %if.then8

if.then8:                                         ; preds = %for.body
  %vtable = load ptr, ptr %this, align 8
  %vfn = getelementptr inbounds i8, ptr %vtable, i64 64
  %2 = load ptr, ptr %vfn, align 8
  %call9 = tail call noundef nonnull align 8 dereferenceable(64) ptr %2(ptr noundef nonnull align 8 dereferenceable(488) %this, double noundef %call6, ptr noundef nonnull align 8 dereferenceable(64) %appendTo, ptr noundef nonnull align 8 dereferenceable(20) %pos)
  br label %for.inc

for.inc:                                          ; preds = %for.body, %if.then8
  %indvars.iv.next = add nuw nsw i64 %indvars.iv, 1
  %exitcond.not = icmp eq i64 %indvars.iv.next, %wide.trip.count
  br i1 %exitcond.not, label %return, label %for.body, !llvm.loop !12

return.sink.split:                                ; preds = %if.end, %entry
  %.sink = phi i32 [ 1, %entry ], [ 27, %if.end ]
  store i32 %.sink, ptr %status, align 4
  br label %return

return:                                           ; preds = %for.inc, %return.sink.split, %for.cond.preheader
  ret ptr %appendTo
}